; Function Attrs: mustprogress nounwind uwtable
define hidden void @_ZN17FreeListAllocatorD2Ev(ptr noundef nonnull align 8 dereferenceable(568) %0) unnamed_addr #2 align 2 {
  %.sroa.0 = alloca ptr, align 8
  %2 = getelementptr inbounds i8, ptr %0, i64 512
  %3 = load volatile i32, ptr %2, align 8
  %4 = getelementptr inbounds i8, ptr %0, i64 520
  %5 = zext i32 %3 to i64
  %6 = getelementptr inbounds [2 x %"class.FreeListAllocator::PendingList"], ptr %4, i64 0, i64 %5
  tail call void @llvm.experimental.noalias.scope.decl(metadata !10)
  %7 = getelementptr inbounds i8, ptr %6, i64 8
  %8 = load volatile ptr, ptr %7, align 8, !noalias !10
  %9 = getelementptr inbounds i8, ptr %6, i64 16
  %10 = load volatile i64, ptr %9, align 8, !noalias !10
  store ptr %8, ptr %.sroa.0, align 8, !alias.scope !10
  store volatile ptr null, ptr %7, align 8, !noalias !10
  store ptr null, ptr %6, align 8, !noalias !10
  store volatile i64 0, ptr %9, align 8, !noalias !10
  %.sroa.0.0..sroa.0.0..sroa.0.0..sroa.0.0. = load volatile ptr, ptr %.sroa.0, align 8
  %.not5.i = icmp eq ptr %.sroa.0.0..sroa.0.0..sroa.0.0..sroa.0.0., null
  br i1 %.not5.i, label %_ZN17FreeListAllocator11delete_listEPNS_8FreeNodeE.exit, label %.lr.ph.i

.lr.ph.i:                                         ; preds = %1, %.lr.ph.i
  %.06.i = phi ptr [ %11, %.lr.ph.i ], [ %.sroa.0.0..sroa.0.0..sroa.0.0..sroa.0.0., %1 ]
  %11 = load volatile ptr, ptr %.06.i, align 8
  %12 = load ptr, ptr %0, align 8
  %13 = load ptr, ptr %12, align 8
  %14 = getelementptr inbounds i8, ptr %13, i64 8
  %15 = load ptr, ptr %14, align 8
  tail call void %15(ptr noundef nonnull align 8 dereferenceable(16) %12, ptr noundef nonnull %.06.i) #12
  %.not.i = icmp eq ptr %11, null
  br i1 %.not.i, label %_ZN17FreeListAllocator11delete_listEPNS_8FreeNodeE.exit, label %.lr.ph.i, !llvm.loop !8

_ZN17FreeListAllocator11delete_listEPNS_8FreeNodeE.exit: ; preds = %.lr.ph.i, %1
  %16 = getelementptr inbounds i8, ptr %0, i64 256
  %17 = tail call noundef ptr asm sideeffect "xchgq ($2),$0", "=r,0,r,~{memory},~{dirflag},~{fpsr},~{flags}"(ptr null, ptr nonnull %16) #12, !srcloc !6
  %.not5.i1 = icmp eq ptr %17, null
  br i1 %.not5.i1, label %_ZN17FreeListAllocator11delete_listEPNS_8FreeNodeE.exit5, label %.lr.ph.i2

.lr.ph.i2:                                        ; preds = %_ZN17FreeListAllocator11delete_listEPNS_8FreeNodeE.exit, %.lr.ph.i2
  %.06.i3 = phi ptr [ %18, %.lr.ph.i2 ], [ %17, %_ZN17FreeListAllocator11delete_listEPNS_8FreeNodeE.exit ]
  %18 = load volatile ptr, ptr %.06.i3, align 8
  %19 = load ptr, ptr %0, align 8
  %20 = load ptr, ptr %19, align 8
  %21 = getelementptr inbounds i8, ptr %20, i64 8
  %22 = load ptr, ptr %21, align 8
  tail call void %22(ptr noundef nonnull align 8 dereferenceable(16) %19, ptr noundef nonnull %.06.i3) #12
  %.not.i4 = icmp eq ptr %18, null
  br i1 %.not.i4, label %_ZN17FreeListAllocator11delete_listEPNS_8FreeNodeE.exit5, label %.lr.ph.i2, !llvm.loop !8

_ZN17FreeListAllocator11delete_listEPNS_8FreeNodeE.exit5: ; preds = %.lr.ph.i2, %_ZN17FreeListAllocator11delete_listEPNS_8FreeNodeE.exit
  ret void
}